target datalayout = "e-m:e-p270:32:32-p271:32:32-p272:64:64-i64:64-i128:128-f80:128-n8:16:32:64-S128"
target triple = "x86_64-pc-linux-gnu"

%struct.Agobj_s = type { %struct.Agtag_s, ptr }
%struct.Agtag_s = type { i32, i64 }
%struct.Agraphinfo_t = type { %struct.Agrec_s, ptr, ptr, %struct.boxf, [4 x %struct.pointf_s], i8, i8, i8, i8, i32, double, double, i16, ptr, ptr, ptr, ptr, i32, ptr, ptr, ptr, ptr, i16, i16, i32, ptr, ptr, ptr, ptr, ptr, i32, ptr, ptr, %struct.nlist_t, ptr, ptr, i32, i32, i8, i8, i32, i32, i32, ptr, ptr, ptr, ptr, i8, i8, i8, i8, i8 }
%struct.Agrec_s = type { ptr, ptr }
%struct.boxf = type { %struct.pointf_s, %struct.pointf_s }
%struct.pointf_s = type { double, double }
%struct.nlist_t = type { ptr, i64 }
%struct.Agnodeinfo_t = type { %struct.Agrec_s, ptr, ptr, %struct.pointf_s, double, double, %struct.boxf, double, double, double, double, double, ptr, ptr, ptr, i8, i8, i8, i8, i32, i32, i32, ptr, double, i8, i8, ptr, ptr, i8, i64, i8, i8, i8, ptr, ptr, %struct.elist, %struct.elist, %struct.elist, %struct.elist, %struct.elist, ptr, i32, ptr, i32, i32, double, %struct.elist, %struct.elist, %struct.elist, %struct.elist, ptr, i32, i32, i32, [1 x double] }
%struct.elist = type { ptr, i64 }

@stderr = external global ptr, align 8
@Verbose = external global i8, align 1
@.str.8 = private unnamed_addr constant [18 x i8] c"%s : %f %f %f %f\0A\00", align 1
@.str.9 = private unnamed_addr constant [12 x i8] c"%s : %f %f\0A\00", align 1
@.str.10 = private unnamed_addr constant [3 x i8] c"  \00", align 1
@.str.11 = private unnamed_addr constant [15 x i8] c"reposition %s\0A\00", align 1

; Function Attrs: nounwind uwtable
define internal void @indent(i32 noundef %0) #0 {
  %2 = alloca i32, align 4
  store i32 %0, ptr %2, align 4, !tbaa !49
  br label %3

3:                                                ; preds = %9, %1
  %4 = load i32, ptr %2, align 4, !tbaa !49
  %5 = icmp sgt i32 %4, 0
  br i1 %5, label %6, label %12

6:                                                ; preds = %3
  %7 = load ptr, ptr @stderr, align 8, !tbaa !71
  %8 = call i32 @fputs(ptr noundef @.str.10, ptr noundef %7)
  br label %9

9:                                                ; preds = %6
  %10 = load i32, ptr %2, align 4, !tbaa !49
  %11 = add nsw i32 %10, -1
  store i32 %11, ptr %2, align 4, !tbaa !49
  br label %3, !llvm.loop !120

12:                                               ; preds = %3
  ret void
}

; Function Attrs: nounwind uwtable
define internal void @reposition(ptr noundef %0, i32 noundef %1) #0 {
  %3 = alloca ptr, align 8
  %4 = alloca i32, align 4
  %5 = alloca %struct.boxf, align 8
  %6 = alloca %struct.boxf, align 8
  %7 = alloca ptr, align 8
  %8 = alloca ptr, align 8
  %9 = alloca i32, align 4
  store ptr %0, ptr %3, align 8, !tbaa !3
  store i32 %1, ptr %4, align 4, !tbaa !49
  call void @llvm.lifetime.start.p0(i64 32, ptr %5) #12
  call void @llvm.lifetime.start.p0(i64 32, ptr %6) #12
  %10 = load ptr, ptr %3, align 8, !tbaa !3
  %11 = getelementptr inbounds nuw %struct.Agobj_s, ptr %10, i32 0, i32 1
  %12 = load ptr, ptr %11, align 8, !tbaa !8
  %13 = getelementptr inbounds nuw %struct.Agraphinfo_t, ptr %12, i32 0, i32 3
  call void @llvm.memcpy.p0.p0.i64(ptr align 8 %6, ptr align 8 %13, i64 32, i1 false), !tbaa.struct !86
  call void @llvm.lifetime.start.p0(i64 8, ptr %7) #12
  call void @llvm.lifetime.start.p0(i64 8, ptr %8) #12
  call void @llvm.lifetime.start.p0(i64 4, ptr %9) #12
  %14 = load i8, ptr @Verbose, align 1, !tbaa !70
  %15 = zext i8 %14 to i32
  %16 = icmp sgt i32 %15, 1
  br i1 %16, label %17, label %23

17:                                               ; preds = %2
  %18 = load i32, ptr %4, align 4, !tbaa !49
  call void @indent(i32 noundef %18)
  %19 = load ptr, ptr @stderr, align 8, !tbaa !71
  %20 = load ptr, ptr %3, align 8, !tbaa !3
  %21 = call ptr @agnameof(ptr noundef %20)
  %22 = call i32 (ptr, ptr, ...) @fprintf(ptr noundef %19, ptr noundef @.str.11, ptr noundef %21) #12
  br label %23

23:                                               ; preds = %17, %2
  %24 = load i32, ptr %4, align 4, !tbaa !49
  %25 = icmp ne i32 %24, 0
  br i1 %25, label %26, label %89

26:                                               ; preds = %23
  %27 = load ptr, ptr %3, align 8, !tbaa !3
  %28 = call ptr @agfstnode(ptr noundef %27)
  store ptr %28, ptr %7, align 8, !tbaa !35
  br label %29

29:                                               ; preds = %84, %26
  %30 = load ptr, ptr %7, align 8, !tbaa !35
  %31 = icmp ne ptr %30, null
  br i1 %31, label %32, label %88

32:                                               ; preds = %29
  %33 = load ptr, ptr %7, align 8, !tbaa !35
  %34 = getelementptr inbounds nuw %struct.Agobj_s, ptr %33, i32 0, i32 1
  %35 = load ptr, ptr %34, align 8, !tbaa !8
  %36 = getelementptr inbounds nuw %struct.Agnodeinfo_t, ptr %35, i32 0, i32 14
  %37 = load ptr, ptr %36, align 8, !tbaa !88
  %38 = load ptr, ptr %3, align 8, !tbaa !3
  %39 = icmp ne ptr %37, %38
  br i1 %39, label %40, label %41

40:                                               ; preds = %32
  br label %84

41:                                               ; preds = %32
  %42 = getelementptr inbounds nuw %struct.boxf, ptr %6, i32 0, i32 0
  %43 = getelementptr inbounds nuw %struct.pointf_s, ptr %42, i32 0, i32 0
  %44 = load double, ptr %43, align 8, !tbaa !89
  %45 = load ptr, ptr %7, align 8, !tbaa !35
  %46 = getelementptr inbounds nuw %struct.Agobj_s, ptr %45, i32 0, i32 1
  %47 = load ptr, ptr %46, align 8, !tbaa !8
  %48 = getelementptr inbounds nuw %struct.Agnodeinfo_t, ptr %47, i32 0, i32 3
  %49 = getelementptr inbounds nuw %struct.pointf_s, ptr %48, i32 0, i32 0
  %50 = load double, ptr %49, align 8, !tbaa !36
  %51 = fadd double %50, %44
  store double %51, ptr %49, align 8, !tbaa !36
  %52 = getelementptr inbounds nuw %struct.boxf, ptr %6, i32 0, i32 0
  %53 = getelementptr inbounds nuw %struct.pointf_s, ptr %52, i32 0, i32 1
  %54 = load double, ptr %53, align 8, !tbaa !90
  %55 = load ptr, ptr %7, align 8, !tbaa !35
  %56 = getelementptr inbounds nuw %struct.Agobj_s, ptr %55, i32 0, i32 1
  %57 = load ptr, ptr %56, align 8, !tbaa !8
  %58 = getelementptr inbounds nuw %struct.Agnodeinfo_t, ptr %57, i32 0, i32 3
  %59 = getelementptr inbounds nuw %struct.pointf_s, ptr %58, i32 0, i32 1
  %60 = load double, ptr %59, align 8, !tbaa !45
  %61 = fadd double %60, %54
  store double %61, ptr %59, align 8, !tbaa !45
  %62 = load i8, ptr @Verbose, align 1, !tbaa !70
  %63 = zext i8 %62 to i32
  %64 = icmp sgt i32 %63, 1
  br i1 %64, label %65, label %83

65:                                               ; preds = %41
  %66 = load i32, ptr %4, align 4, !tbaa !49
  call void @indent(i32 noundef %66)
  %67 = load ptr, ptr @stderr, align 8, !tbaa !71
  %68 = load ptr, ptr %7, align 8, !tbaa !35
  %69 = call ptr @agnameof(ptr noundef %68)
  %70 = load ptr, ptr %7, align 8, !tbaa !35
  %71 = getelementptr inbounds nuw %struct.Agobj_s, ptr %70, i32 0, i32 1
  %72 = load ptr, ptr %71, align 8, !tbaa !8
  %73 = getelementptr inbounds nuw %struct.Agnodeinfo_t, ptr %72, i32 0, i32 3
  %74 = getelementptr inbounds nuw %struct.pointf_s, ptr %73, i32 0, i32 0
  %75 = load double, ptr %74, align 8, !tbaa !36
  %76 = load ptr, ptr %7, align 8, !tbaa !35
  %77 = getelementptr inbounds nuw %struct.Agobj_s, ptr %76, i32 0, i32 1
  %78 = load ptr, ptr %77, align 8, !tbaa !8
  %79 = getelementptr inbounds nuw %struct.Agnodeinfo_t, ptr %78, i32 0, i32 3
  %80 = getelementptr inbounds nuw %struct.pointf_s, ptr %79, i32 0, i32 1
  %81 = load double, ptr %80, align 8, !tbaa !45
  %82 = call i32 (ptr, ptr, ...) @fprintf(ptr noundef %67, ptr noundef @.str.9, ptr noundef %69, double noundef %75, double noundef %81) #12
  br label %83

83:                                               ; preds = %65, %41
  br label %84

84:                                               ; preds = %83, %40
  %85 = load ptr, ptr %3, align 8, !tbaa !3
  %86 = load ptr, ptr %7, align 8, !tbaa !35
  %87 = call ptr @agnxtnode(ptr noundef %85, ptr noundef %86)
  store ptr %87, ptr %7, align 8, !tbaa !35
  br label %29, !llvm.loop !105

88:                                               ; preds = %29
  br label %89

89:                                               ; preds = %88, %23
  store i32 1, ptr %9, align 4, !tbaa !49
  br label %90

90:                                               ; preds = %173, %89
  %91 = load i32, ptr %9, align 4, !tbaa !49
  %92 = load ptr, ptr %3, align 8, !tbaa !3
  %93 = getelementptr inbounds nuw %struct.Agobj_s, ptr %92, i32 0, i32 1
  %94 = load ptr, ptr %93, align 8, !tbaa !8
  %95 = getelementptr inbounds nuw %struct.Agraphinfo_t, ptr %94, i32 0, i32 24
  %96 = load i32, ptr %95, align 4, !tbaa !58
  %97 = icmp sle i32 %91, %96
  br i1 %97, label %98, label %176

98:                                               ; preds = %90
  %99 = load ptr, ptr %3, align 8, !tbaa !3
  %100 = getelementptr inbounds nuw %struct.Agobj_s, ptr %99, i32 0, i32 1
  %101 = load ptr, ptr %100, align 8, !tbaa !8
  %102 = getelementptr inbounds nuw %struct.Agraphinfo_t, ptr %101, i32 0, i32 25
  %103 = load ptr, ptr %102, align 8, !tbaa !59
  %104 = load i32, ptr %9, align 4, !tbaa !49
  %105 = sext i32 %104 to i64
  %106 = getelementptr inbounds ptr, ptr %103, i64 %105
  %107 = load ptr, ptr %106, align 8, !tbaa !3
  store ptr %107, ptr %8, align 8, !tbaa !3
  %108 = load i32, ptr %4, align 4, !tbaa !49
  %109 = icmp ne i32 %108, 0
  br i1 %109, label %110, label %169

110:                                              ; preds = %98
  %111 = load ptr, ptr %8, align 8, !tbaa !3
  %112 = getelementptr inbounds nuw %struct.Agobj_s, ptr %111, i32 0, i32 1
  %113 = load ptr, ptr %112, align 8, !tbaa !8
  %114 = getelementptr inbounds nuw %struct.Agraphinfo_t, ptr %113, i32 0, i32 3
  call void @llvm.memcpy.p0.p0.i64(ptr align 8 %5, ptr align 8 %114, i64 32, i1 false), !tbaa.struct !86
  %115 = getelementptr inbounds nuw %struct.boxf, ptr %6, i32 0, i32 0
  %116 = getelementptr inbounds nuw %struct.pointf_s, ptr %115, i32 0, i32 0
  %117 = load double, ptr %116, align 8, !tbaa !89
  %118 = getelementptr inbounds nuw %struct.boxf, ptr %5, i32 0, i32 0
  %119 = getelementptr inbounds nuw %struct.pointf_s, ptr %118, i32 0, i32 0
  %120 = load double, ptr %119, align 8, !tbaa !89
  %121 = fadd double %120, %117
  store double %121, ptr %119, align 8, !tbaa !89
  %122 = getelementptr inbounds nuw %struct.boxf, ptr %6, i32 0, i32 0
  %123 = getelementptr inbounds nuw %struct.pointf_s, ptr %122, i32 0, i32 1
  %124 = load double, ptr %123, align 8, !tbaa !90
  %125 = getelementptr inbounds nuw %struct.boxf, ptr %5, i32 0, i32 0
  %126 = getelementptr inbounds nuw %struct.pointf_s, ptr %125, i32 0, i32 1
  %127 = load double, ptr %126, align 8, !tbaa !90
  %128 = fadd double %127, %124
  store double %128, ptr %126, align 8, !tbaa !90
  %129 = getelementptr inbounds nuw %struct.boxf, ptr %6, i32 0, i32 0
  %130 = getelementptr inbounds nuw %struct.pointf_s, ptr %129, i32 0, i32 0
  %131 = load double, ptr %130, align 8, !tbaa !89
  %132 = getelementptr inbounds nuw %struct.boxf, ptr %5, i32 0, i32 1
  %133 = getelementptr inbounds nuw %struct.pointf_s, ptr %132, i32 0, i32 0
  %134 = load double, ptr %133, align 8, !tbaa !93
  %135 = fadd double %134, %131
  store double %135, ptr %133, align 8, !tbaa !93
  %136 = getelementptr inbounds nuw %struct.boxf, ptr %6, i32 0, i32 0
  %137 = getelementptr inbounds nuw %struct.pointf_s, ptr %136, i32 0, i32 1
  %138 = load double, ptr %137, align 8, !tbaa !90
  %139 = getelementptr inbounds nuw %struct.boxf, ptr %5, i32 0, i32 1
  %140 = getelementptr inbounds nuw %struct.pointf_s, ptr %139, i32 0, i32 1
  %141 = load double, ptr %140, align 8, !tbaa !95
  %142 = fadd double %141, %138
  store double %142, ptr %140, align 8, !tbaa !95
  %143 = load i8, ptr @Verbose, align 1, !tbaa !70
  %144 = zext i8 %143 to i32
  %145 = icmp sgt i32 %144, 1
  br i1 %145, label %146, label %164

146:                                              ; preds = %110
  %147 = load i32, ptr %4, align 4, !tbaa !49
  call void @indent(i32 noundef %147)
  %148 = load ptr, ptr @stderr, align 8, !tbaa !71
  %149 = load ptr, ptr %8, align 8, !tbaa !3
  %150 = call ptr @agnameof(ptr noundef %149)
  %151 = getelementptr inbounds nuw %struct.boxf, ptr %5, i32 0, i32 0
  %152 = getelementptr inbounds nuw %struct.pointf_s, ptr %151, i32 0, i32 0
  %153 = load double, ptr %152, align 8, !tbaa !89
  %154 = getelementptr inbounds nuw %struct.boxf, ptr %5, i32 0, i32 0
  %155 = getelementptr inbounds nuw %struct.pointf_s, ptr %154, i32 0, i32 1
  %156 = load double, ptr %155, align 8, !tbaa !90
  %157 = getelementptr inbounds nuw %struct.boxf, ptr %5, i32 0, i32 1
  %158 = getelementptr inbounds nuw %struct.pointf_s, ptr %157, i32 0, i32 0
  %159 = load double, ptr %158, align 8, !tbaa !93
  %160 = getelementptr inbounds nuw %struct.boxf, ptr %5, i32 0, i32 1
  %161 = getelementptr inbounds nuw %struct.pointf_s, ptr %160, i32 0, i32 1
  %162 = load double, ptr %161, align 8, !tbaa !95
  %163 = call i32 (ptr, ptr, ...) @fprintf(ptr noundef %148, ptr noundef @.str.8, ptr noundef %150, double noundef %153, double noundef %156, double noundef %159, double noundef %162) #12
  br label %164

164:                                              ; preds = %146, %110
  %165 = load ptr, ptr %8, align 8, !tbaa !3
  %166 = getelementptr inbounds nuw %struct.Agobj_s, ptr %165, i32 0, i32 1
  %167 = load ptr, ptr %166, align 8, !tbaa !8
  %168 = getelementptr inbounds nuw %struct.Agraphinfo_t, ptr %167, i32 0, i32 3
  call void @llvm.memcpy.p0.p0.i64(ptr align 8 %168, ptr align 8 %5, i64 32, i1 false), !tbaa.struct !86
  br label %169

169:                                              ; preds = %164, %98
  %170 = load ptr, ptr %8, align 8, !tbaa !3
  %171 = load i32, ptr %4, align 4, !tbaa !49
  %172 = add nsw i32 %171, 1
  call void @reposition(ptr noundef %170, i32 noundef %172)
  br label %173

173:                                              ; preds = %169
  %174 = load i32, ptr %9, align 4, !tbaa !49
  %175 = add nsw i32 %174, 1
  store i32 %175, ptr %9, align 4, !tbaa !49
  br label %90, !llvm.loop !106

176:                                              ; preds = %90
  call void @llvm.lifetime.end.p0(i64 4, ptr %9) #12
  call void @llvm.lifetime.end.p0(i64 8, ptr %8) #12
  call void @llvm.lifetime.end.p0(i64 8, ptr %7) #12
  call void @llvm.lifetime.end.p0(i64 32, ptr %6) #12
  call void @llvm.lifetime.end.p0(i64 32, ptr %5) #12
  ret void
}