; Function Attrs: nounwind uwtable
define internal fastcc void @reposition(ptr noundef %0, i32 noundef %1) unnamed_addr #0 {
  %3 = getelementptr inbounds nuw i8, ptr %0, i64 16
  %4 = load ptr, ptr %3, align 8, !tbaa !3
  %5 = getelementptr inbounds nuw i8, ptr %4, i64 32
  %.sroa.0.0.copyload = load double, ptr %5, align 8, !tbaa !48
  %.sroa.6.0..sroa_idx = getelementptr inbounds nuw i8, ptr %4, i64 40
  %.sroa.6.0.copyload = load double, ptr %.sroa.6.0..sroa_idx, align 8, !tbaa !48
  %6 = load i8, ptr @Verbose, align 1, !tbaa !73
  %7 = icmp ugt i8 %6, 1
  br i1 %7, label %8, label %17

8:                                                ; preds = %2
  %9 = icmp sgt i32 %1, 0
  br i1 %9, label %.lr.ph.i, label %indent.exit

.lr.ph.i:                                         ; preds = %8, %.lr.ph.i
  %.02.i = phi i32 [ %12, %.lr.ph.i ], [ %1, %8 ]
  %10 = load ptr, ptr @stderr, align 8, !tbaa !52
  %11 = tail call i64 @fwrite(ptr nonnull @.str.10, i64 2, i64 1, ptr %10) #19
  %12 = add nsw i32 %.02.i, -1
  %13 = icmp samesign ugt i32 %.02.i, 1
  br i1 %13, label %.lr.ph.i, label %indent.exit, !llvm.loop !74

indent.exit:                                      ; preds = %.lr.ph.i, %8
  %14 = load ptr, ptr @stderr, align 8, !tbaa !52
  %15 = tail call ptr @agnameof(ptr noundef %0) #15
  %16 = tail call i32 (ptr, ptr, ...) @fprintf(ptr noundef %14, ptr noundef nonnull @.str.11, ptr noundef %15) #16
  br label %17

17:                                               ; preds = %indent.exit, %2
  %.not = icmp eq i32 %1, 0
  br i1 %.not, label %.loopexit.thread66, label %18

18:                                               ; preds = %17
  %19 = tail call ptr @agfstnode(ptr noundef %0) #15
  %.not4554 = icmp eq ptr %19, null
  br i1 %.not4554, label %.loopexit.thread, label %.lr.ph

.lr.ph:                                           ; preds = %18
  %20 = icmp sgt i32 %1, 0
  br i1 %20, label %.lr.ph.split.us, label %.lr.ph.split

.lr.ph.split.us:                                  ; preds = %.lr.ph, %38
  %.04355.us = phi ptr [ %39, %38 ], [ %19, %.lr.ph ]
  %21 = getelementptr inbounds nuw i8, ptr %.04355.us, i64 16
  %22 = load ptr, ptr %21, align 8, !tbaa !3
  %23 = getelementptr inbounds nuw i8, ptr %22, i64 152
  %24 = load ptr, ptr %23, align 8, !tbaa !90
  %.not47.us = icmp eq ptr %24, %0
  br i1 %.not47.us, label %25, label %38

25:                                               ; preds = %.lr.ph.split.us
  %26 = getelementptr inbounds nuw i8, ptr %22, i64 32
  %27 = load double, ptr %26, align 8, !tbaa !40
  %28 = fadd double %.sroa.0.0.copyload, %27
  store double %28, ptr %26, align 8, !tbaa !40
  %29 = getelementptr inbounds nuw i8, ptr %22, i64 40
  %30 = load double, ptr %29, align 8, !tbaa !49
  %31 = fadd double %.sroa.6.0.copyload, %30
  store double %31, ptr %29, align 8, !tbaa !49
  %32 = load i8, ptr @Verbose, align 1, !tbaa !73
  %33 = icmp ugt i8 %32, 1
  br i1 %33, label %.lr.ph.i48.us, label %38

.lr.ph.i48.us:                                    ; preds = %25, %.lr.ph.i48.us
  %.02.i49.us = phi i32 [ %36, %.lr.ph.i48.us ], [ %1, %25 ]
  %34 = load ptr, ptr @stderr, align 8, !tbaa !52
  %35 = tail call i64 @fwrite(ptr nonnull @.str.10, i64 2, i64 1, ptr %34) #19
  %36 = add nsw i32 %.02.i49.us, -1
  %37 = icmp samesign ugt i32 %.02.i49.us, 1
  br i1 %37, label %.lr.ph.i48.us, label %indent.exit50.loopexit.us, !llvm.loop !74

38:                                               ; preds = %indent.exit50.loopexit.us, %25, %.lr.ph.split.us
  %39 = tail call ptr @agnxtnode(ptr noundef %0, ptr noundef nonnull %.04355.us) #15
  %.not45.us = icmp eq ptr %39, null
  br i1 %.not45.us, label %.loopexit, label %.lr.ph.split.us, !llvm.loop !98

indent.exit50.loopexit.us:                        ; preds = %.lr.ph.i48.us
  %40 = load ptr, ptr @stderr, align 8, !tbaa !52
  %41 = tail call ptr @agnameof(ptr noundef nonnull %.04355.us) #15
  %42 = load ptr, ptr %21, align 8, !tbaa !3
  %43 = getelementptr inbounds nuw i8, ptr %42, i64 32
  %44 = load double, ptr %43, align 8, !tbaa !40
  %45 = getelementptr inbounds nuw i8, ptr %42, i64 40
  %46 = load double, ptr %45, align 8, !tbaa !49
  %47 = tail call i32 (ptr, ptr, ...) @fprintf(ptr noundef %40, ptr noundef nonnull @.str.9, ptr noundef %41, double noundef %44, double noundef %46) #16
  br label %38

.lr.ph.split:                                     ; preds = %.lr.ph, %69
  %.04355 = phi ptr [ %70, %69 ], [ %19, %.lr.ph ]
  %48 = getelementptr inbounds nuw i8, ptr %.04355, i64 16
  %49 = load ptr, ptr %48, align 8, !tbaa !3
  %50 = getelementptr inbounds nuw i8, ptr %49, i64 152
  %51 = load ptr, ptr %50, align 8, !tbaa !90
  %.not47 = icmp eq ptr %51, %0
  br i1 %.not47, label %52, label %69

52:                                               ; preds = %.lr.ph.split
  %53 = getelementptr inbounds nuw i8, ptr %49, i64 32
  %54 = load double, ptr %53, align 8, !tbaa !40
  %55 = fadd double %.sroa.0.0.copyload, %54
  store double %55, ptr %53, align 8, !tbaa !40
  %56 = getelementptr inbounds nuw i8, ptr %49, i64 40
  %57 = load double, ptr %56, align 8, !tbaa !49
  %58 = fadd double %.sroa.6.0.copyload, %57
  store double %58, ptr %56, align 8, !tbaa !49
  %59 = load i8, ptr @Verbose, align 1, !tbaa !73
  %60 = icmp ugt i8 %59, 1
  br i1 %60, label %indent.exit50, label %69

indent.exit50:                                    ; preds = %52
  %61 = load ptr, ptr @stderr, align 8, !tbaa !52
  %62 = tail call ptr @agnameof(ptr noundef nonnull %.04355) #15
  %63 = load ptr, ptr %48, align 8, !tbaa !3
  %64 = getelementptr inbounds nuw i8, ptr %63, i64 32
  %65 = load double, ptr %64, align 8, !tbaa !40
  %66 = getelementptr inbounds nuw i8, ptr %63, i64 40
  %67 = load double, ptr %66, align 8, !tbaa !49
  %68 = tail call i32 (ptr, ptr, ...) @fprintf(ptr noundef %61, ptr noundef nonnull @.str.9, ptr noundef %62, double noundef %65, double noundef %67) #16
  br label %69

69:                                               ; preds = %52, %indent.exit50, %.lr.ph.split
  %70 = tail call ptr @agnxtnode(ptr noundef %0, ptr noundef nonnull %.04355) #15
  %.not45 = icmp eq ptr %70, null
  br i1 %.not45, label %.loopexit, label %.lr.ph.split, !llvm.loop !98

.loopexit:                                        ; preds = %69, %38
  %71 = load ptr, ptr %3, align 8, !tbaa !3
  %72 = getelementptr inbounds nuw i8, ptr %71, i64 236
  %73 = load i32, ptr %72, align 4, !tbaa !61
  %.not4656 = icmp slt i32 %73, 1
  br i1 %.not4656, label %._crit_edge, label %.lr.ph58.split.preheader

.loopexit.thread66:                               ; preds = %17
  %74 = load ptr, ptr %3, align 8, !tbaa !3
  %75 = getelementptr inbounds nuw i8, ptr %74, i64 236
  %76 = load i32, ptr %75, align 4, !tbaa !61
  %.not465667 = icmp slt i32 %76, 1
  br i1 %.not465667, label %._crit_edge, label %.lr.ph58.split.us

.loopexit.thread:                                 ; preds = %18
  %77 = load ptr, ptr %3, align 8, !tbaa !3
  %78 = getelementptr inbounds nuw i8, ptr %77, i64 236
  %79 = load i32, ptr %78, align 4, !tbaa !61
  %.not465665 = icmp slt i32 %79, 1
  br i1 %.not465665, label %._crit_edge, label %.lr.ph58.split.preheader

.lr.ph58.split.preheader:                         ; preds = %.loopexit, %.loopexit.thread
  %80 = phi ptr [ %77, %.loopexit.thread ], [ %71, %.loopexit ]
  %81 = icmp sgt i32 %1, 0
  %82 = add nsw i32 %1, 1
  br label %.lr.ph58.split

.lr.ph58.split.us:                                ; preds = %.loopexit.thread66, %.lr.ph58.split.us
  %indvars.iv62 = phi i64 [ %indvars.iv.next63, %.lr.ph58.split.us ], [ 1, %.loopexit.thread66 ]
  %83 = phi ptr [ %88, %.lr.ph58.split.us ], [ %74, %.loopexit.thread66 ]
  %84 = getelementptr inbounds nuw i8, ptr %83, i64 240
  %85 = load ptr, ptr %84, align 8, !tbaa !64
  %86 = getelementptr inbounds nuw ptr, ptr %85, i64 %indvars.iv62
  %87 = load ptr, ptr %86, align 8, !tbaa !57
  tail call fastcc void @reposition(ptr noundef %87, i32 noundef 1)
  %indvars.iv.next63 = add nuw nsw i64 %indvars.iv62, 1
  %88 = load ptr, ptr %3, align 8, !tbaa !3
  %89 = getelementptr inbounds nuw i8, ptr %88, i64 236
  %90 = load i32, ptr %89, align 4, !tbaa !61
  %91 = sext i32 %90 to i64
  %.not46.us.not = icmp slt i64 %indvars.iv62, %91
  br i1 %.not46.us.not, label %.lr.ph58.split.us, label %._crit_edge, !llvm.loop !99

.lr.ph58.split:                                   ; preds = %.lr.ph58.split.preheader, %114
  %indvars.iv = phi i64 [ 1, %.lr.ph58.split.preheader ], [ %indvars.iv.next, %114 ]
  %92 = phi ptr [ %80, %.lr.ph58.split.preheader ], [ %117, %114 ]
  %93 = getelementptr inbounds nuw i8, ptr %92, i64 240
  %94 = load ptr, ptr %93, align 8, !tbaa !64
  %95 = getelementptr inbounds nuw ptr, ptr %94, i64 %indvars.iv
  %96 = load ptr, ptr %95, align 8, !tbaa !57
  %97 = getelementptr inbounds nuw i8, ptr %96, i64 16
  %98 = load ptr, ptr %97, align 8, !tbaa !3
  %99 = getelementptr inbounds nuw i8, ptr %98, i64 32
  %.sroa.018.0.copyload = load double, ptr %99, align 8, !tbaa !48
  %.sroa.7.0..sroa_idx = getelementptr inbounds nuw i8, ptr %98, i64 40
  %.sroa.7.0.copyload = load double, ptr %.sroa.7.0..sroa_idx, align 8, !tbaa !48
  %.sroa.10.0..sroa_idx = getelementptr inbounds nuw i8, ptr %98, i64 48
  %.sroa.10.0.copyload = load double, ptr %.sroa.10.0..sroa_idx, align 8, !tbaa !48
  %.sroa.13.0..sroa_idx = getelementptr inbounds nuw i8, ptr %98, i64 56
  %.sroa.13.0.copyload = load double, ptr %.sroa.13.0..sroa_idx, align 8, !tbaa !48
  %100 = fadd double %.sroa.0.0.copyload, %.sroa.018.0.copyload
  %101 = fadd double %.sroa.6.0.copyload, %.sroa.7.0.copyload
  %102 = fadd double %.sroa.0.0.copyload, %.sroa.10.0.copyload
  %103 = fadd double %.sroa.6.0.copyload, %.sroa.13.0.copyload
  %104 = load i8, ptr @Verbose, align 1, !tbaa !73
  %105 = icmp ugt i8 %104, 1
  br i1 %105, label %106, label %114

106:                                              ; preds = %.lr.ph58.split
  br i1 %81, label %.lr.ph.i51, label %indent.exit53

.lr.ph.i51:                                       ; preds = %106, %.lr.ph.i51
  %.02.i52 = phi i32 [ %109, %.lr.ph.i51 ], [ %1, %106 ]
  %107 = load ptr, ptr @stderr, align 8, !tbaa !52
  %108 = tail call i64 @fwrite(ptr nonnull @.str.10, i64 2, i64 1, ptr %107) #19
  %109 = add nsw i32 %.02.i52, -1
  %110 = icmp samesign ugt i32 %.02.i52, 1
  br i1 %110, label %.lr.ph.i51, label %indent.exit53, !llvm.loop !74

indent.exit53:                                    ; preds = %.lr.ph.i51, %106
  %111 = load ptr, ptr @stderr, align 8, !tbaa !52
  %112 = tail call ptr @agnameof(ptr noundef %96) #15
  %113 = tail call i32 (ptr, ptr, ...) @fprintf(ptr noundef %111, ptr noundef nonnull @.str.8, ptr noundef %112, double noundef %100, double noundef %101, double noundef %102, double noundef %103) #16
  %.pre = load ptr, ptr %97, align 8, !tbaa !3
  br label %114

114:                                              ; preds = %indent.exit53, %.lr.ph58.split
  %115 = phi ptr [ %.pre, %indent.exit53 ], [ %98, %.lr.ph58.split ]
  %116 = getelementptr inbounds nuw i8, ptr %115, i64 32
  store double %100, ptr %116, align 8, !tbaa !48
  %.sroa.7.0..sroa_idx21 = getelementptr inbounds nuw i8, ptr %115, i64 40
  store double %101, ptr %.sroa.7.0..sroa_idx21, align 8, !tbaa !48
  %.sroa.10.0..sroa_idx24 = getelementptr inbounds nuw i8, ptr %115, i64 48
  store double %102, ptr %.sroa.10.0..sroa_idx24, align 8, !tbaa !48
  %.sroa.13.0..sroa_idx27 = getelementptr inbounds nuw i8, ptr %115, i64 56
  store double %103, ptr %.sroa.13.0..sroa_idx27, align 8, !tbaa !48
  tail call fastcc void @reposition(ptr noundef nonnull %96, i32 noundef %82)
  %indvars.iv.next = add nuw nsw i64 %indvars.iv, 1
  %117 = load ptr, ptr %3, align 8, !tbaa !3
  %118 = getelementptr inbounds nuw i8, ptr %117, i64 236
  %119 = load i32, ptr %118, align 4, !tbaa !61
  %120 = sext i32 %119 to i64
  %.not46.not = icmp slt i64 %indvars.iv, %120
  br i1 %.not46.not, label %.lr.ph58.split, label %._crit_edge, !llvm.loop !99

._crit_edge:                                      ; preds = %114, %.lr.ph58.split.us, %.loopexit.thread66, %.loopexit.thread, %.loopexit
  ret void
}